csympy.core.mul
Mul
p0
(csympy.core.numbers
Rational
p1
(I1
I72
tp2
Rp3
(dp4
bcsympy.core.symbol
Symbol
p5
(S'gamma'
p6
tp7
Rp8
(dp9
S'_assumptions'
p10
ccopy_reg
_reconstructor
p11
(csympy.core.assumptions
StdFactKB
p12
c__builtin__
dict
p13
(dp14
S'polar'
p15
NsS'commutative'
p16
I01
sS'antihermitian'
p17
NsS'nonpositive'
p18
NsS'positive'
p19
NsS'negative'
p20
NsS'nonnegative'
p21
NsS'algebraic'
p22
NsS'zero'
p23
NsS'complex'
p24
NsS'rational'
p25
NsS'infinite'
p26
NsS'hermitian'
p27
NsS'finite'
p28
NsS'irrational'
p29
Nstp30
Rp31
sbcsympy.core.add
Add
p32
(g0
(csympy.core.numbers
Integer
p33
(I-216
tp34
Rp35
(dp36
bcsympy.functions.elementary.trigonometric
cos
p37
(g32
(g5
(S'phi1'
p38
tp39
Rp40
(dp41
g10
g11
(g12
g13
(dp42
S'real'
p43
Nsg15
Nsg29
Nsg17
Nsg18
Nsg22
Nsg23
Nsg26
NsS'integer'
p44
Nsg27
NsS'odd'
p45
NsS'imaginary'
p46
NsS'even'
p47
Nsg28
Nsg16
I01
sg19
Nsg20
Nsg21
Nsg24
Nsg25
NsS'nonzero'
p48
Nstp49
Rp50
sbg5
(S'phi6'
p51
tp52
Rp53
(dp54
g10
g11
(g12
g13
(dp55
g43
Nsg15
Nsg29
Nsg17
Nsg18
Nsg22
Nsg23
Nsg26
Nsg44
Nsg27
Nsg45
Nsg46
Nsg47
Nsg28
Nsg16
I01
sg19
Nsg20
Nsg21
Nsg24
Nsg25
Nsg48
Nstp56
Rp57
sbg0
(g1
(I1
I3
tp58
Rp59
(dp60
bcsympy.core.numbers
Pi
p61
(tRp62
(dp63
btp64
Rp65
(dp66
btp67
Rp68
(dp69
btp70
Rp71
(dp72
btp73
Rp74
(dp75
bg0
(g35
g37
(g32
(g5
(S'phi3'
p76
tp77
Rp78
(dp79
g10
g11
(g12
g13
(dp80
g43
Nsg15
Nsg29
Nsg17
Nsg18
Nsg22
Nsg23
Nsg26
Nsg44
Nsg27
Nsg45
Nsg46
Nsg47
Nsg28
Nsg16
I01
sg19
Nsg20
Nsg21
Nsg24
Nsg25
Nsg48
Nstp81
Rp82
sbg5
(S'phi4'
p83
tp84
Rp85
(dp86
g10
g11
(g12
g13
(dp87
g43
Nsg15
Nsg29
Nsg17
Nsg18
Nsg22
Nsg23
Nsg26
Nsg44
Nsg27
Nsg45
Nsg46
Nsg47
Nsg28
Nsg16
I01
sg19
Nsg20
Nsg21
Nsg24
Nsg25
Nsg48
Nstp88
Rp89
sbg65
tp90
Rp91
(dp92
btp93
Rp94
(dp95
btp96
Rp97
(dp98
bg0
(g35
csympy.functions.elementary.trigonometric
sin
p99
(g32
(g5
(S'phi0'
p100
tp101
Rp102
(dp103
g10
g11
(g12
g13
(dp104
g43
Nsg48
Nsg29
Nsg17
Nsg18
Nsg22
Nsg27
Nsg26
Nsg44
Nsg46
Nsg45
Nsg47
Nsg16
I01
sg23
Nsg19
Nsg20
Nsg21
Nsg24
Nsg25
Nsg28
Nstp105
Rp106
sbg78
g0
(g1
(I1
I6
tp107
Rp108
(dp109
bg62
tp110
Rp111
(dp112
btp113
Rp114
(dp115
btp116
Rp117
(dp118
btp119
Rp120
(dp121
bg0
(g35
g99
(g32
(g40
g5
(S'phi2'
p122
tp123
Rp124
(dp125
g10
g11
(g12
g13
(dp126
g43
Nsg15
Nsg29
Nsg17
Nsg18
Nsg22
Nsg23
Nsg26
Nsg44
Nsg27
Nsg45
Nsg46
Nsg47
Nsg28
Nsg16
I01
sg19
Nsg20
Nsg21
Nsg24
Nsg25
Nsg48
Nstp127
Rp128
sbg111
tp129
Rp130
(dp131
btp132
Rp133
(dp134
btp135
Rp136
(dp137
bg0
(g35
g99
(g32
(g85
g5
(S'phi5'
p138
tp139
Rp140
(dp141
g10
g11
(g12
g13
(dp142
g43
Nsg15
Nsg29
Nsg17
Nsg18
Nsg22
Nsg23
Nsg26
Nsg44
Nsg27
Nsg45
Nsg46
Nsg47
Nsg28
Nsg16
I01
sg19
Nsg20
Nsg21
Nsg24
Nsg25
Nsg48
Nstp143
Rp144
sbg111
tp145
Rp146
(dp147
btp148
Rp149
(dp150
btp151
Rp152
(dp153
bg0
(g33
(I-108
tp154
Rp155
(dp156
bg37
(g32
(g102
g124
tp157
Rp158
(dp159
btp160
Rp161
(dp162
btp163
Rp164
(dp165
bg0
(g155
g37
(g32
(g102
g40
g65
tp166
Rp167
(dp168
btp169
Rp170
(dp171
btp172
Rp173
(dp174
bg0
(g155
g37
(g32
(g102
g124
g65
tp175
Rp176
(dp177
btp178
Rp179
(dp180
btp181
Rp182
(dp183
bg0
(g155
g37
(g32
(g102
g140
g65
tp184
Rp185
(dp186
btp187
Rp188
(dp189
btp190
Rp191
(dp192
bg0
(g33
(I-27
tp193
Rp194
(dp195
bg37
(g32
(g124
g140
g65
tp196
Rp197
(dp198
btp199
Rp200
(dp201
btp202
Rp203
(dp204
bg0
(g194
g99
(g32
(g78
g53
g111
tp205
Rp206
(dp207
btp208
Rp209
(dp210
btp211
Rp212
(dp213
bg0
(g33
(I9
tp214
Rp215
(dp216
bg37
(g32
(g40
g0
(csympy.core.numbers
NegativeOne
p217
(tRp218
(dp219
bg85
tp220
Rp221
(dp222
btp223
Rp224
(dp225
btp226
Rp227
(dp228
btp229
Rp230
(dp231
bg0
(g215
g37
(g32
(g124
g0
(g218
g140
tp232
Rp233
(dp234
btp235
Rp236
(dp237
btp238
Rp239
(dp240
btp241
Rp242
(dp243
bg0
(g215
g37
(g32
(g78
g0
(g218
g53
tp244
Rp245
(dp246
btp247
Rp248
(dp249
btp250
Rp251
(dp252
btp253
Rp254
(dp255
bg0
(g33
(I27
tp256
Rp257
(dp258
bg37
(g32
(g40
g85
tp259
Rp260
(dp261
btp262
Rp263
(dp264
btp265
Rp266
(dp267
bg0
(g33
(I72
tp268
Rp269
(dp270
bg37
(g32
(g102
g0
(g218
g40
tp271
Rp272
(dp273
btp274
Rp275
(dp276
btp277
Rp278
(dp279
btp280
Rp281
(dp282
bg0
(g269
g37
(g32
(g102
g0
(g218
g124
tp283
Rp284
(dp285
btp286
Rp287
(dp288
btp289
Rp290
(dp291
btp292
Rp293
(dp294
bg0
(g269
g37
(g32
(g102
g0
(g218
g78
tp295
Rp296
(dp297
btp298
Rp299
(dp300
btp301
Rp302
(dp303
btp304
Rp305
(dp306
bg0
(g269
g37
(g32
(g102
g221
tp307
Rp308
(dp309
btp310
Rp311
(dp312
btp313
Rp314
(dp315
bg0
(g269
g37
(g32
(g102
g233
tp316
Rp317
(dp318
btp319
Rp320
(dp321
btp322
Rp323
(dp324
bg0
(g269
g37
(g32
(g102
g245
tp325
Rp326
(dp327
btp328
Rp329
(dp330
btp331
Rp332
(dp333
bg0
(g269
g37
(g32
(g40
g284
tp334
Rp335
(dp336
btp337
Rp338
(dp339
btp340
Rp341
(dp342
bg0
(g269
g37
(g32
(g40
g245
tp343
Rp344
(dp345
btp346
Rp347
(dp348
btp349
Rp350
(dp351
bg0
(g269
g37
(g32
(g124
g296
tp352
Rp353
(dp354
btp355
Rp356
(dp357
btp358
Rp359
(dp360
bg0
(g269
g37
(g32
(g78
g221
tp361
Rp362
(dp363
btp364
Rp365
(dp366
btp367
Rp368
(dp369
bg0
(g269
g37
(g32
(g85
g233
tp370
Rp371
(dp372
btp373
Rp374
(dp375
btp376
Rp377
(dp378
bg0
(g269
g37
(g32
(g140
g245
tp379
Rp380
(dp381
btp382
Rp383
(dp384
btp385
Rp386
(dp387
bg0
(g33
(I108
tp388
Rp389
(dp390
bg37
(g32
(g102
g40
tp391
Rp392
(dp393
btp394
Rp395
(dp396
btp397
Rp398
(dp399
bg0
(g389
g37
(g32
(g102
g85
tp400
Rp401
(dp402
btp403
Rp404
(dp405
btp406
Rp407
(dp408
bg0
(g389
g37
(g32
(g102
g140
tp409
Rp410
(dp411
btp412
Rp413
(dp414
btp415
Rp416
(dp417
bg0
(g389
g37
(g32
(g102
g85
g65
tp418
Rp419
(dp420
btp421
Rp422
(dp423
btp424
Rp425
(dp426
bg0
(g33
(I216
tp427
Rp428
(dp429
bg37
(g32
(g124
g78
tp430
Rp431
(dp432
btp433
Rp434
(dp435
btp436
Rp437
(dp438
bg0
(g428
g37
(g32
(g140
g53
tp439
Rp440
(dp441
btp442
Rp443
(dp444
btp445
Rp446
(dp447
bg0
(g33
(I8
tp448
Rp449
(dp450
bcsympy.core.power
Pow
p451
(g33
(I3
tp452
Rp453
(dp454
bcsympy.core.numbers
Half
p455
(tRp456
(dp457
btp458
Rp459
(dp460
bg32
(g0
(g33
(I-3
tp461
Rp462
(dp463
bg37
(g32
(g124
g53
tp464
Rp465
(dp466
btp467
Rp468
(dp469
btp470
Rp471
(dp472
bg37
(g32
(g124
g245
tp473
Rp474
(dp475
btp476
Rp477
(dp478
btp479
Rp480
(dp481
btp482
Rp483
(dp484
bg0
(g449
g459
g32
(g0
(g462
g37
(g32
(g78
g140
tp485
Rp486
(dp487
btp488
Rp489
(dp490
btp491
Rp492
(dp493
bg37
(g32
(g78
g233
tp494
Rp495
(dp496
btp497
Rp498
(dp499
btp500
Rp501
(dp502
btp503
Rp504
(dp505
bg0
(g449
g459
g32
(g0
(g453
g37
(g32
(g40
g78
g65
tp506
Rp507
(dp508
btp509
Rp510
(dp511
btp512
Rp513
(dp514
bg37
(g32
(g40
g296
tp515
Rp516
(dp517
btp518
Rp519
(dp520
btp521
Rp522
(dp523
btp524
Rp525
(dp526
bg0
(g449
g459
g32
(g0
(g453
g37
(g32
(g85
g53
g65
tp527
Rp528
(dp529
btp530
Rp531
(dp532
btp533
Rp534
(dp535
bg37
(g32
(g85
g245
tp536
Rp537
(dp538
btp539
Rp540
(dp541
btp542
Rp543
(dp544
btp545
Rp546
(dp547
bg0
(g449
g459
g32
(g0
(g453
g99
(g32
(g40
g140
g111
tp548
Rp549
(dp550
btp551
Rp552
(dp553
btp554
Rp555
(dp556
bg37
(g32
(g40
g233
tp557
Rp558
(dp559
btp560
Rp561
(dp562
btp563
Rp564
(dp565
btp566
Rp567
(dp568
bg0
(g449
g459
g32
(g0
(g453
g99
(g32
(g124
g85
g111
tp569
Rp570
(dp571
btp572
Rp573
(dp574
btp575
Rp576
(dp577
bg37
(g32
(g124
g221
tp578
Rp579
(dp580
btp581
Rp582
(dp583
btp584
Rp585
(dp586
btp587
Rp588
(dp589
btp590
Rp591
(dp592
btp593
Rp594
(dp595
b.