csympy.core.mul
Mul
p0
(csympy.core.symbol
Symbol
p1
(S'gamma'
p2
tp3
Rp4
(dp5
S'_assumptions'
p6
ccopy_reg
_reconstructor
p7
(csympy.core.assumptions
StdFactKB
p8
c__builtin__
dict
p9
(dp10
S'commutative'
p11
I01
sS'antihermitian'
p12
NsS'nonpositive'
p13
NsS'positive'
p14
NsS'negative'
p15
NsS'nonnegative'
p16
NsS'algebraic'
p17
NsS'zero'
p18
NsS'complex'
p19
NsS'rational'
p20
NsS'infinite'
p21
NsS'hermitian'
p22
NsS'finite'
p23
NsS'irrational'
p24
Nstp25
Rp26
sbcsympy.core.add
Add
p27
(g0
(csympy.core.numbers
NegativeOne
p28
(tRp29
(dp30
bcsympy.functions.elementary.trigonometric
cos
p31
(g27
(g1
(S'phi0'
p32
tp33
Rp34
(dp35
g6
g7
(g8
g9
(dp36
S'real'
p37
Nsg24
Nsg12
Nsg13
Nsg17
Nsg22
Nsg21
NsS'integer'
p38
NsS'imaginary'
p39
NsS'odd'
p40
NsS'even'
p41
Nsg11
I01
sg18
Nsg14
Nsg15
Nsg16
Nsg19
Nsg20
Nsg23
Nstp42
Rp43
sbg0
(g29
g1
(S'phi1'
p44
tp45
Rp46
(dp47
g6
g7
(g8
g9
(dp48
g37
Nsg24
Nsg12
Nsg13
Nsg17
Nsg18
Nsg21
Nsg38
Nsg22
Nsg40
Nsg39
Nsg41
Nsg11
I01
sg14
Nsg15
Nsg16
Nsg19
Nsg20
Nsg23
Nstp49
Rp50
sbtp51
Rp52
(dp53
btp54
Rp55
(dp56
btp57
Rp58
(dp59
btp60
Rp61
(dp62
bg0
(g29
g31
(g27
(g34
g0
(g29
g1
(S'phi2'
p63
tp64
Rp65
(dp66
g6
g7
(g8
g9
(dp67
g37
Nsg24
Nsg12
Nsg13
Nsg17
Nsg18
Nsg21
Nsg38
Nsg22
Nsg40
Nsg39
Nsg41
Nsg11
I01
sg14
Nsg15
Nsg16
Nsg19
Nsg20
Nsg23
Nstp68
Rp69
sbtp70
Rp71
(dp72
btp73
Rp74
(dp75
btp76
Rp77
(dp78
btp79
Rp80
(dp81
bg0
(g29
g31
(g27
(g34
g0
(g29
g1
(S'phi3'
p82
tp83
Rp84
(dp85
g6
g7
(g8
g9
(dp86
g37
Nsg24
Nsg12
Nsg13
Nsg17
Nsg18
Nsg21
Nsg38
Nsg22
Nsg40
Nsg39
Nsg41
Nsg11
I01
sg14
Nsg15
Nsg16
Nsg19
Nsg20
Nsg23
Nstp87
Rp88
sbtp89
Rp90
(dp91
btp92
Rp93
(dp94
btp95
Rp96
(dp97
btp98
Rp99
(dp100
bg0
(g29
g31
(g27
(g34
g0
(g29
g1
(S'phi4'
p101
tp102
Rp103
(dp104
g6
g7
(g8
g9
(dp105
g37
Nsg24
Nsg12
Nsg13
Nsg17
Nsg22
Nsg21
Nsg38
Nsg39
Nsg40
Nsg41
Nsg11
I01
sg18
Nsg14
Nsg15
Nsg16
Nsg19
Nsg20
Nsg23
Nstp106
Rp107
sbtp108
Rp109
(dp110
btp111
Rp112
(dp113
btp114
Rp115
(dp116
btp117
Rp118
(dp119
bg0
(g29
g31
(g27
(g34
g0
(g29
g1
(S'phi5'
p120
tp121
Rp122
(dp123
g6
g7
(g8
g9
(dp124
g37
Nsg24
Nsg12
Nsg13
Nsg17
Nsg18
Nsg21
Nsg38
Nsg22
Nsg40
Nsg39
Nsg41
Nsg11
I01
sg14
Nsg15
Nsg16
Nsg19
Nsg20
Nsg23
Nstp125
Rp126
sbtp127
Rp128
(dp129
btp130
Rp131
(dp132
btp133
Rp134
(dp135
btp136
Rp137
(dp138
bg0
(g29
g31
(g27
(g34
g0
(g29
g1
(S'phi6'
p139
tp140
Rp141
(dp142
g6
g7
(g8
g9
(dp143
g37
Nsg24
Nsg12
Nsg13
Nsg17
Nsg18
Nsg21
Nsg22
Nsg39
Nsg41
Nsg11
I01
sg14
Nsg15
Nsg16
Nsg19
Nsg20
Nsg23
Nstp144
Rp145
sbtp146
Rp147
(dp148
btp149
Rp150
(dp151
btp152
Rp153
(dp154
btp155
Rp156
(dp157
bg0
(g29
g31
(g27
(g46
g71
tp158
Rp159
(dp160
btp161
Rp162
(dp163
btp164
Rp165
(dp166
bg0
(g29
g31
(g27
(g46
g147
tp167
Rp168
(dp169
btp170
Rp171
(dp172
btp173
Rp174
(dp175
bg0
(g29
g31
(g27
(g65
g90
tp176
Rp177
(dp178
btp179
Rp180
(dp181
btp182
Rp183
(dp184
bg0
(g29
g31
(g27
(g84
g109
tp185
Rp186
(dp187
btp188
Rp189
(dp190
btp191
Rp192
(dp193
bg0
(g29
g31
(g27
(g103
g128
tp194
Rp195
(dp196
btp197
Rp198
(dp199
btp200
Rp201
(dp202
bg0
(g29
g31
(g27
(g122
g147
tp203
Rp204
(dp205
btp206
Rp207
(dp208
btp209
Rp210
(dp211
bg0
(csympy.core.numbers
Integer
p212
(I-3
tp213
Rp214
(dp215
bg31
(g27
(g34
g46
tp216
Rp217
(dp218
btp219
Rp220
(dp221
btp222
Rp223
(dp224
bg0
(g214
g31
(g27
(g34
g103
tp225
Rp226
(dp227
btp228
Rp229
(dp230
btp231
Rp232
(dp233
bg0
(g214
g31
(g27
(g65
g84
tp234
Rp235
(dp236
btp237
Rp238
(dp239
btp240
Rp241
(dp242
bg0
(g214
g31
(g27
(g122
g141
tp243
Rp244
(dp245
btp246
Rp247
(dp248
btp249
Rp250
(dp251
bg0
(g212
(I3
tp252
Rp253
(dp254
bg31
(g27
(g34
g65
g0
(csympy.core.numbers
Rational
p255
(I1
I3
tp256
Rp257
(dp258
bcsympy.core.numbers
Pi
p259
(tRp260
(dp261
btp262
Rp263
(dp264
btp265
Rp266
(dp267
btp268
Rp269
(dp270
btp271
Rp272
(dp273
bg0
(g253
g31
(g27
(g34
g122
g263
tp274
Rp275
(dp276
btp277
Rp278
(dp279
btp280
Rp281
(dp282
bg0
(g253
g31
(g27
(g46
g141
g263
tp283
Rp284
(dp285
btp286
Rp287
(dp288
btp289
Rp290
(dp291
bg0
(g253
g31
(g27
(g84
g103
g263
tp292
Rp293
(dp294
btp295
Rp296
(dp297
btp298
Rp299
(dp300
bg0
(g253
csympy.functions.elementary.trigonometric
sin
p301
(g27
(g34
g84
g0
(g255
(I1
I6
tp302
Rp303
(dp304
bg260
tp305
Rp306
(dp307
btp308
Rp309
(dp310
btp311
Rp312
(dp313
btp314
Rp315
(dp316
bg0
(g253
g301
(g27
(g34
g141
g306
tp317
Rp318
(dp319
btp320
Rp321
(dp322
btp323
Rp324
(dp325
bg0
(g253
g301
(g27
(g46
g65
g306
tp326
Rp327
(dp328
btp329
Rp330
(dp331
btp332
Rp333
(dp334
bg0
(g253
g301
(g27
(g103
g122
g306
tp335
Rp336
(dp337
btp338
Rp339
(dp340
btp341
Rp342
(dp343
bg0
(g255
(I-3
I8
tp344
Rp345
(dp346
bg31
(g27
(g46
g103
tp347
Rp348
(dp349
btp350
Rp351
(dp352
btp353
Rp354
(dp355
bg0
(g255
(I-1
I8
tp356
Rp357
(dp358
bg31
(g27
(g46
g109
tp359
Rp360
(dp361
btp362
Rp363
(dp364
btp365
Rp366
(dp367
bg0
(g357
g31
(g27
(g65
g128
tp368
Rp369
(dp370
btp371
Rp372
(dp373
btp374
Rp375
(dp376
bg0
(g357
g31
(g27
(g84
g147
tp377
Rp378
(dp379
btp380
Rp381
(dp382
btp383
Rp384
(dp385
bg0
(g255
(I3
I8
tp386
Rp387
(dp388
bg31
(g27
(g65
g122
g263
tp389
Rp390
(dp391
btp392
Rp393
(dp394
btp395
Rp396
(dp397
bg0
(g387
g301
(g27
(g84
g141
g306
tp398
Rp399
(dp400
btp401
Rp402
(dp403
btp404
Rp405
(dp406
bg0
(g255
(I-1
I9
tp407
Rp408
(dp409
bcsympy.core.power
Pow
p410
(g253
csympy.core.numbers
Half
p411
(tRp412
(dp413
btp414
Rp415
(dp416
bg27
(g0
(g214
g31
(g27
(g65
g141
tp417
Rp418
(dp419
btp420
Rp421
(dp422
btp423
Rp424
(dp425
bg31
(g27
(g65
g147
tp426
Rp427
(dp428
btp429
Rp430
(dp431
btp432
Rp433
(dp434
btp435
Rp436
(dp437
bg0
(g408
g415
g27
(g0
(g214
g31
(g27
(g84
g122
tp438
Rp439
(dp440
btp441
Rp442
(dp443
btp444
Rp445
(dp446
bg31
(g27
(g84
g128
tp447
Rp448
(dp449
btp450
Rp451
(dp452
btp453
Rp454
(dp455
btp456
Rp457
(dp458
bg0
(g408
g415
g27
(g0
(g253
g31
(g27
(g46
g84
g263
tp459
Rp460
(dp461
btp462
Rp463
(dp464
btp465
Rp466
(dp467
bg31
(g27
(g46
g90
tp468
Rp469
(dp470
btp471
Rp472
(dp473
btp474
Rp475
(dp476
btp477
Rp478
(dp479
bg0
(g408
g415
g27
(g0
(g253
g31
(g27
(g103
g141
g263
tp480
Rp481
(dp482
btp483
Rp484
(dp485
btp486
Rp487
(dp488
bg31
(g27
(g103
g147
tp489
Rp490
(dp491
btp492
Rp493
(dp494
btp495
Rp496
(dp497
btp498
Rp499
(dp500
bg0
(g408
g415
g27
(g0
(g253
g301
(g27
(g46
g122
g306
tp501
Rp502
(dp503
btp504
Rp505
(dp506
btp507
Rp508
(dp509
bg31
(g27
(g46
g128
tp510
Rp511
(dp512
btp513
Rp514
(dp515
btp516
Rp517
(dp518
btp519
Rp520
(dp521
bg0
(g408
g415
g27
(g0
(g253
g301
(g27
(g65
g103
g306
tp522
Rp523
(dp524
btp525
Rp526
(dp527
btp528
Rp529
(dp530
bg31
(g27
(g65
g109
tp531
Rp532
(dp533
btp534
Rp535
(dp536
btp537
Rp538
(dp539
btp540
Rp541
(dp542
btp543
Rp544
(dp545
btp546
Rp547
(dp548
b.